; Function Attrs: nofree norecurse nosync nounwind memory(argmem: readwrite) uwtable
define internal void @put_rv30_tpel16_mc22_c(ptr noundef writeonly captures(none) %0, ptr noundef readonly captures(none) %1, i64 noundef %2) #3 {
  %4 = trunc i64 %2 to i32
  %5 = shl nsw i32 %4, 1
  %sext = shl i64 %2, 32
  %6 = ashr exact i64 %sext, 32
  %7 = sext i32 %5 to i64
  br label %.preheader.i.i

.preheader.i.i:                                   ; preds = %43, %3
  %.047.i.i = phi i32 [ 0, %3 ], [ %45, %43 ]
  %.03846.i.i = phi ptr [ %0, %3 ], [ %44, %43 ]
  %.03945.i.i = phi ptr [ %1, %3 ], [ %invariant.gep.i.i, %43 ]
  %invariant.gep.i.i = getelementptr i8, ptr %.03945.i.i, i64 %6
  %invariant.gep54.i.i = getelementptr i8, ptr %.03945.i.i, i64 %7
  br label %8

8:                                                ; preds = %8, %.preheader.i.i
  %indvars.iv.i.i = phi i64 [ 0, %.preheader.i.i ], [ %indvars.iv.next.i.i, %8 ]
  %9 = getelementptr inbounds nuw i8, ptr %.03945.i.i, i64 %indvars.iv.i.i
  %10 = load i8, ptr %9, align 1, !tbaa !8
  %11 = zext i8 %10 to i64
  %12 = mul nuw nsw i64 %11, 36
  %indvars.iv.next.i.i = add nuw nsw i64 %indvars.iv.i.i, 1
  %13 = getelementptr inbounds nuw i8, ptr %.03945.i.i, i64 %indvars.iv.next.i.i
  %14 = load i8, ptr %13, align 1, !tbaa !8
  %15 = zext i8 %14 to i64
  %16 = add nuw nsw i64 %indvars.iv.i.i, 2
  %17 = getelementptr inbounds nuw i8, ptr %.03945.i.i, i64 %16
  %18 = load i8, ptr %17, align 1, !tbaa !8
  %19 = zext i8 %18 to i64
  %gep.i.i = getelementptr i8, ptr %invariant.gep.i.i, i64 %indvars.iv.i.i
  %20 = load i8, ptr %gep.i.i, align 1, !tbaa !8
  %21 = zext i8 %20 to i64
  %gep51.i.i = getelementptr i8, ptr %invariant.gep.i.i, i64 %indvars.iv.next.i.i
  %22 = load i8, ptr %gep51.i.i, align 1, !tbaa !8
  %23 = zext i8 %22 to i64
  %24 = mul nuw nsw i64 %23, 81
  %gep53.i.i = getelementptr i8, ptr %invariant.gep.i.i, i64 %16
  %25 = load i8, ptr %gep53.i.i, align 1, !tbaa !8
  %26 = zext i8 %25 to i64
  %gep55.i.i = getelementptr i8, ptr %invariant.gep54.i.i, i64 %indvars.iv.i.i
  %27 = load i8, ptr %gep55.i.i, align 1, !tbaa !8
  %28 = zext i8 %27 to i64
  %gep57.i.i = getelementptr i8, ptr %invariant.gep54.i.i, i64 %indvars.iv.next.i.i
  %29 = load i8, ptr %gep57.i.i, align 1, !tbaa !8
  %30 = zext i8 %29 to i64
  %gep59.i.i = getelementptr i8, ptr %invariant.gep54.i.i, i64 %16
  %31 = load i8, ptr %gep59.i.i, align 1, !tbaa !8
  %32 = zext i8 %31 to i64
  %reass.add.i.i = add nuw nsw i64 %30, %26
  %reass.mul.i.i = mul nuw nsw i64 %reass.add.i.i, 9
  %reass.add40.i.i = add nuw nsw i64 %28, %19
  %reass.mul41.i.i = mul nuw nsw i64 %reass.add40.i.i, 6
  %reass.add42.i.i = add nuw nsw i64 %21, %15
  %reass.mul43.i.i = mul nuw nsw i64 %reass.add42.i.i, 54
  %33 = add nuw nsw i64 %12, 128
  %34 = add nuw nsw i64 %33, %24
  %35 = add nuw nsw i64 %34, %reass.mul43.i.i
  %36 = add nuw nsw i64 %35, %32
  %37 = add nuw nsw i64 %36, %reass.mul41.i.i
  %38 = add nuw nsw i64 %37, %reass.mul.i.i
  %39 = lshr i64 %38, 8
  %40 = getelementptr inbounds nuw i8, ptr getelementptr inbounds nuw (i8, ptr @ff_crop_tab, i64 1024), i64 %39
  %41 = load i8, ptr %40, align 1, !tbaa !8
  %42 = getelementptr inbounds nuw i8, ptr %.03846.i.i, i64 %indvars.iv.i.i
  store i8 %41, ptr %42, align 1, !tbaa !8
  %exitcond.not.i.i = icmp eq i64 %indvars.iv.next.i.i, 8
  br i1 %exitcond.not.i.i, label %43, label %8, !llvm.loop !16

43:                                               ; preds = %8
  %44 = getelementptr inbounds i8, ptr %.03846.i.i, i64 %6
  %45 = add nuw nsw i32 %.047.i.i, 1
  %exitcond49.not.i.i = icmp eq i32 %45, 8
  br i1 %exitcond49.not.i.i, label %put_rv30_tpel8_hhvv_lowpass.exit.i, label %.preheader.i.i, !llvm.loop !17

put_rv30_tpel8_hhvv_lowpass.exit.i:               ; preds = %43
  %46 = getelementptr inbounds nuw i8, ptr %0, i64 8
  %47 = getelementptr inbounds nuw i8, ptr %1, i64 8
  br label %.preheader.i19.i

.preheader.i19.i:                                 ; preds = %83, %put_rv30_tpel8_hhvv_lowpass.exit.i
  %.047.i20.i = phi i32 [ 0, %put_rv30_tpel8_hhvv_lowpass.exit.i ], [ %85, %83 ]
  %.03846.i21.i = phi ptr [ %46, %put_rv30_tpel8_hhvv_lowpass.exit.i ], [ %84, %83 ]
  %.03945.i22.i = phi ptr [ %47, %put_rv30_tpel8_hhvv_lowpass.exit.i ], [ %invariant.gep.i23.i, %83 ]
  %invariant.gep.i23.i = getelementptr i8, ptr %.03945.i22.i, i64 %6
  %invariant.gep54.i26.i = getelementptr i8, ptr %.03945.i22.i, i64 %7
  br label %48

48:                                               ; preds = %48, %.preheader.i19.i
  %indvars.iv.i29.i = phi i64 [ 0, %.preheader.i19.i ], [ %indvars.iv.next.i30.i, %48 ]
  %49 = getelementptr inbounds nuw i8, ptr %.03945.i22.i, i64 %indvars.iv.i29.i
  %50 = load i8, ptr %49, align 1, !tbaa !8
  %51 = zext i8 %50 to i64
  %52 = mul nuw nsw i64 %51, 36
  %indvars.iv.next.i30.i = add nuw nsw i64 %indvars.iv.i29.i, 1
  %53 = getelementptr inbounds nuw i8, ptr %.03945.i22.i, i64 %indvars.iv.next.i30.i
  %54 = load i8, ptr %53, align 1, !tbaa !8
  %55 = zext i8 %54 to i64
  %56 = add nuw nsw i64 %indvars.iv.i29.i, 2
  %57 = getelementptr inbounds nuw i8, ptr %.03945.i22.i, i64 %56
  %58 = load i8, ptr %57, align 1, !tbaa !8
  %59 = zext i8 %58 to i64
  %gep.i31.i = getelementptr i8, ptr %invariant.gep.i23.i, i64 %indvars.iv.i29.i
  %60 = load i8, ptr %gep.i31.i, align 1, !tbaa !8
  %61 = zext i8 %60 to i64
  %gep51.i32.i = getelementptr i8, ptr %invariant.gep.i23.i, i64 %indvars.iv.next.i30.i
  %62 = load i8, ptr %gep51.i32.i, align 1, !tbaa !8
  %63 = zext i8 %62 to i64
  %64 = mul nuw nsw i64 %63, 81
  %gep53.i33.i = getelementptr i8, ptr %invariant.gep.i23.i, i64 %56
  %65 = load i8, ptr %gep53.i33.i, align 1, !tbaa !8
  %66 = zext i8 %65 to i64
  %gep55.i34.i = getelementptr i8, ptr %invariant.gep54.i26.i, i64 %indvars.iv.i29.i
  %67 = load i8, ptr %gep55.i34.i, align 1, !tbaa !8
  %68 = zext i8 %67 to i64
  %gep57.i35.i = getelementptr i8, ptr %invariant.gep54.i26.i, i64 %indvars.iv.next.i30.i
  %69 = load i8, ptr %gep57.i35.i, align 1, !tbaa !8
  %70 = zext i8 %69 to i64
  %gep59.i36.i = getelementptr i8, ptr %invariant.gep54.i26.i, i64 %56
  %71 = load i8, ptr %gep59.i36.i, align 1, !tbaa !8
  %72 = zext i8 %71 to i64
  %reass.add.i37.i = add nuw nsw i64 %70, %66
  %reass.mul.i38.i = mul nuw nsw i64 %reass.add.i37.i, 9
  %reass.add40.i39.i = add nuw nsw i64 %68, %59
  %reass.mul41.i40.i = mul nuw nsw i64 %reass.add40.i39.i, 6
  %reass.add42.i41.i = add nuw nsw i64 %61, %55
  %reass.mul43.i42.i = mul nuw nsw i64 %reass.add42.i41.i, 54
  %73 = add nuw nsw i64 %52, 128
  %74 = add nuw nsw i64 %73, %64
  %75 = add nuw nsw i64 %74, %reass.mul43.i42.i
  %76 = add nuw nsw i64 %75, %72
  %77 = add nuw nsw i64 %76, %reass.mul41.i40.i
  %78 = add nuw nsw i64 %77, %reass.mul.i38.i
  %79 = lshr i64 %78, 8
  %80 = getelementptr inbounds nuw i8, ptr getelementptr inbounds nuw (i8, ptr @ff_crop_tab, i64 1024), i64 %79
  %81 = load i8, ptr %80, align 1, !tbaa !8
  %82 = getelementptr inbounds nuw i8, ptr %.03846.i21.i, i64 %indvars.iv.i29.i
  store i8 %81, ptr %82, align 1, !tbaa !8
  %exitcond.not.i43.i = icmp eq i64 %indvars.iv.next.i30.i, 8
  br i1 %exitcond.not.i43.i, label %83, label %48, !llvm.loop !16

83:                                               ; preds = %48
  %84 = getelementptr inbounds i8, ptr %.03846.i21.i, i64 %6
  %85 = add nuw nsw i32 %.047.i20.i, 1
  %exitcond49.not.i44.i = icmp eq i32 %85, 8
  br i1 %exitcond49.not.i44.i, label %put_rv30_tpel8_hhvv_lowpass.exit45.i, label %.preheader.i19.i, !llvm.loop !17

put_rv30_tpel8_hhvv_lowpass.exit45.i:             ; preds = %83
  %86 = shl nsw i32 %4, 3
  %87 = sext i32 %86 to i64
  %88 = getelementptr inbounds i8, ptr %1, i64 %87
  %89 = getelementptr inbounds i8, ptr %0, i64 %87
  br label %.preheader.i46.i

.preheader.i46.i:                                 ; preds = %125, %put_rv30_tpel8_hhvv_lowpass.exit45.i
  %.047.i47.i = phi i32 [ 0, %put_rv30_tpel8_hhvv_lowpass.exit45.i ], [ %127, %125 ]
  %.03846.i48.i = phi ptr [ %89, %put_rv30_tpel8_hhvv_lowpass.exit45.i ], [ %126, %125 ]
  %.03945.i49.i = phi ptr [ %88, %put_rv30_tpel8_hhvv_lowpass.exit45.i ], [ %invariant.gep.i50.i, %125 ]
  %invariant.gep.i50.i = getelementptr i8, ptr %.03945.i49.i, i64 %6
  %invariant.gep54.i53.i = getelementptr i8, ptr %.03945.i49.i, i64 %7
  br label %90

90:                                               ; preds = %90, %.preheader.i46.i
  %indvars.iv.i56.i = phi i64 [ 0, %.preheader.i46.i ], [ %indvars.iv.next.i57.i, %90 ]
  %91 = getelementptr inbounds nuw i8, ptr %.03945.i49.i, i64 %indvars.iv.i56.i
  %92 = load i8, ptr %91, align 1, !tbaa !8
  %93 = zext i8 %92 to i64
  %94 = mul nuw nsw i64 %93, 36
  %indvars.iv.next.i57.i = add nuw nsw i64 %indvars.iv.i56.i, 1
  %95 = getelementptr inbounds nuw i8, ptr %.03945.i49.i, i64 %indvars.iv.next.i57.i
  %96 = load i8, ptr %95, align 1, !tbaa !8
  %97 = zext i8 %96 to i64
  %98 = add nuw nsw i64 %indvars.iv.i56.i, 2
  %99 = getelementptr inbounds nuw i8, ptr %.03945.i49.i, i64 %98
  %100 = load i8, ptr %99, align 1, !tbaa !8
  %101 = zext i8 %100 to i64
  %gep.i58.i = getelementptr i8, ptr %invariant.gep.i50.i, i64 %indvars.iv.i56.i
  %102 = load i8, ptr %gep.i58.i, align 1, !tbaa !8
  %103 = zext i8 %102 to i64
  %gep51.i59.i = getelementptr i8, ptr %invariant.gep.i50.i, i64 %indvars.iv.next.i57.i
  %104 = load i8, ptr %gep51.i59.i, align 1, !tbaa !8
  %105 = zext i8 %104 to i64
  %106 = mul nuw nsw i64 %105, 81
  %gep53.i60.i = getelementptr i8, ptr %invariant.gep.i50.i, i64 %98
  %107 = load i8, ptr %gep53.i60.i, align 1, !tbaa !8
  %108 = zext i8 %107 to i64
  %gep55.i61.i = getelementptr i8, ptr %invariant.gep54.i53.i, i64 %indvars.iv.i56.i
  %109 = load i8, ptr %gep55.i61.i, align 1, !tbaa !8
  %110 = zext i8 %109 to i64
  %gep57.i62.i = getelementptr i8, ptr %invariant.gep54.i53.i, i64 %indvars.iv.next.i57.i
  %111 = load i8, ptr %gep57.i62.i, align 1, !tbaa !8
  %112 = zext i8 %111 to i64
  %gep59.i63.i = getelementptr i8, ptr %invariant.gep54.i53.i, i64 %98
  %113 = load i8, ptr %gep59.i63.i, align 1, !tbaa !8
  %114 = zext i8 %113 to i64
  %reass.add.i64.i = add nuw nsw i64 %112, %108
  %reass.mul.i65.i = mul nuw nsw i64 %reass.add.i64.i, 9
  %reass.add40.i66.i = add nuw nsw i64 %110, %101
  %reass.mul41.i67.i = mul nuw nsw i64 %reass.add40.i66.i, 6
  %reass.add42.i68.i = add nuw nsw i64 %103, %97
  %reass.mul43.i69.i = mul nuw nsw i64 %reass.add42.i68.i, 54
  %115 = add nuw nsw i64 %94, 128
  %116 = add nuw nsw i64 %115, %106
  %117 = add nuw nsw i64 %116, %reass.mul43.i69.i
  %118 = add nuw nsw i64 %117, %114
  %119 = add nuw nsw i64 %118, %reass.mul41.i67.i
  %120 = add nuw nsw i64 %119, %reass.mul.i65.i
  %121 = lshr i64 %120, 8
  %122 = getelementptr inbounds nuw i8, ptr getelementptr inbounds nuw (i8, ptr @ff_crop_tab, i64 1024), i64 %121
  %123 = load i8, ptr %122, align 1, !tbaa !8
  %124 = getelementptr inbounds nuw i8, ptr %.03846.i48.i, i64 %indvars.iv.i56.i
  store i8 %123, ptr %124, align 1, !tbaa !8
  %exitcond.not.i70.i = icmp eq i64 %indvars.iv.next.i57.i, 8
  br i1 %exitcond.not.i70.i, label %125, label %90, !llvm.loop !16

125:                                              ; preds = %90
  %126 = getelementptr inbounds i8, ptr %.03846.i48.i, i64 %6
  %127 = add nuw nsw i32 %.047.i47.i, 1
  %exitcond49.not.i71.i = icmp eq i32 %127, 8
  br i1 %exitcond49.not.i71.i, label %put_rv30_tpel8_hhvv_lowpass.exit72.i, label %.preheader.i46.i, !llvm.loop !17

put_rv30_tpel8_hhvv_lowpass.exit72.i:             ; preds = %125
  %128 = getelementptr inbounds nuw i8, ptr %89, i64 8
  %129 = getelementptr inbounds nuw i8, ptr %88, i64 8
  br label %.preheader.i73.i

.preheader.i73.i:                                 ; preds = %165, %put_rv30_tpel8_hhvv_lowpass.exit72.i
  %.047.i74.i = phi i32 [ 0, %put_rv30_tpel8_hhvv_lowpass.exit72.i ], [ %167, %165 ]
  %.03846.i75.i = phi ptr [ %128, %put_rv30_tpel8_hhvv_lowpass.exit72.i ], [ %166, %165 ]
  %.03945.i76.i = phi ptr [ %129, %put_rv30_tpel8_hhvv_lowpass.exit72.i ], [ %invariant.gep.i77.i, %165 ]
  %invariant.gep.i77.i = getelementptr i8, ptr %.03945.i76.i, i64 %6
  %invariant.gep54.i80.i = getelementptr i8, ptr %.03945.i76.i, i64 %7
  br label %130

130:                                              ; preds = %130, %.preheader.i73.i
  %indvars.iv.i83.i = phi i64 [ 0, %.preheader.i73.i ], [ %indvars.iv.next.i84.i, %130 ]
  %131 = getelementptr inbounds nuw i8, ptr %.03945.i76.i, i64 %indvars.iv.i83.i
  %132 = load i8, ptr %131, align 1, !tbaa !8
  %133 = zext i8 %132 to i64
  %134 = mul nuw nsw i64 %133, 36
  %indvars.iv.next.i84.i = add nuw nsw i64 %indvars.iv.i83.i, 1
  %135 = getelementptr inbounds nuw i8, ptr %.03945.i76.i, i64 %indvars.iv.next.i84.i
  %136 = load i8, ptr %135, align 1, !tbaa !8
  %137 = zext i8 %136 to i64
  %138 = add nuw nsw i64 %indvars.iv.i83.i, 2
  %139 = getelementptr inbounds nuw i8, ptr %.03945.i76.i, i64 %138
  %140 = load i8, ptr %139, align 1, !tbaa !8
  %141 = zext i8 %140 to i64
  %gep.i85.i = getelementptr i8, ptr %invariant.gep.i77.i, i64 %indvars.iv.i83.i
  %142 = load i8, ptr %gep.i85.i, align 1, !tbaa !8
  %143 = zext i8 %142 to i64
  %gep51.i86.i = getelementptr i8, ptr %invariant.gep.i77.i, i64 %indvars.iv.next.i84.i
  %144 = load i8, ptr %gep51.i86.i, align 1, !tbaa !8
  %145 = zext i8 %144 to i64
  %146 = mul nuw nsw i64 %145, 81
  %gep53.i87.i = getelementptr i8, ptr %invariant.gep.i77.i, i64 %138
  %147 = load i8, ptr %gep53.i87.i, align 1, !tbaa !8
  %148 = zext i8 %147 to i64
  %gep55.i88.i = getelementptr i8, ptr %invariant.gep54.i80.i, i64 %indvars.iv.i83.i
  %149 = load i8, ptr %gep55.i88.i, align 1, !tbaa !8
  %150 = zext i8 %149 to i64
  %gep57.i89.i = getelementptr i8, ptr %invariant.gep54.i80.i, i64 %indvars.iv.next.i84.i
  %151 = load i8, ptr %gep57.i89.i, align 1, !tbaa !8
  %152 = zext i8 %151 to i64
  %gep59.i90.i = getelementptr i8, ptr %invariant.gep54.i80.i, i64 %138
  %153 = load i8, ptr %gep59.i90.i, align 1, !tbaa !8
  %154 = zext i8 %153 to i64
  %reass.add.i91.i = add nuw nsw i64 %152, %148
  %reass.mul.i92.i = mul nuw nsw i64 %reass.add.i91.i, 9
  %reass.add40.i93.i = add nuw nsw i64 %150, %141
  %reass.mul41.i94.i = mul nuw nsw i64 %reass.add40.i93.i, 6
  %reass.add42.i95.i = add nuw nsw i64 %143, %137
  %reass.mul43.i96.i = mul nuw nsw i64 %reass.add42.i95.i, 54
  %155 = add nuw nsw i64 %134, 128
  %156 = add nuw nsw i64 %155, %146
  %157 = add nuw nsw i64 %156, %reass.mul43.i96.i
  %158 = add nuw nsw i64 %157, %154
  %159 = add nuw nsw i64 %158, %reass.mul41.i94.i
  %160 = add nuw nsw i64 %159, %reass.mul.i92.i
  %161 = lshr i64 %160, 8
  %162 = getelementptr inbounds nuw i8, ptr getelementptr inbounds nuw (i8, ptr @ff_crop_tab, i64 1024), i64 %161
  %163 = load i8, ptr %162, align 1, !tbaa !8
  %164 = getelementptr inbounds nuw i8, ptr %.03846.i75.i, i64 %indvars.iv.i83.i
  store i8 %163, ptr %164, align 1, !tbaa !8
  %exitcond.not.i97.i = icmp eq i64 %indvars.iv.next.i84.i, 8
  br i1 %exitcond.not.i97.i, label %165, label %130, !llvm.loop !16

165:                                              ; preds = %130
  %166 = getelementptr inbounds i8, ptr %.03846.i75.i, i64 %6
  %167 = add nuw nsw i32 %.047.i74.i, 1
  %exitcond49.not.i98.i = icmp eq i32 %167, 8
  br i1 %exitcond49.not.i98.i, label %put_rv30_tpel16_hhvv_lowpass.exit, label %.preheader.i73.i, !llvm.loop !17

put_rv30_tpel16_hhvv_lowpass.exit:                ; preds = %165
  ret void
}